target datalayout = "e-m:e-p270:32:32-p271:32:32-p272:64:64-i64:64-i128:128-f80:128-n8:16:32:64-S128"
target triple = "x86_64-pc-linux-gnu"

%struct.ARKodeMemRec = type { ptr, double, ptr, i32, i32, double, double, ptr, i32, double, ptr, i32, i32, ptr, ptr, i32, ptr, ptr, i32, ptr, ptr, ptr, ptr, ptr, ptr, ptr, ptr, ptr, ptr, ptr, ptr, ptr, ptr, ptr, i32, ptr, ptr, i32, ptr, i32, ptr, ptr, ptr, ptr, ptr, ptr, ptr, ptr, ptr, ptr, ptr, ptr, ptr, ptr, ptr, ptr, ptr, ptr, ptr, ptr, ptr, ptr, ptr, ptr, ptr, ptr, i32, ptr, ptr, ptr, ptr, ptr, ptr, ptr, i32, ptr, ptr, ptr, i32, ptr, ptr, ptr, ptr, ptr, ptr, ptr, i32, i32, i32, i32, double, double, double, double, double, double, double, double, double, double, i32, ptr, i64, i32, i32, i32, i32, i64, i64, i32, i64, i64, i64, i64, i64, i64, i64, double, double, double, double, double, i32, double, double, i32, i32, i32, i32, i32, i32, i32, i32, ptr, i32, ptr, ptr, ptr, ptr, i32, i32, i32 }
%struct._generic_SUNLinearSolver = type { ptr, ptr, ptr }
%struct._generic_SUNLinearSolver_Ops = type { ptr, ptr, ptr, ptr, ptr, ptr, ptr, ptr, ptr, ptr, ptr, ptr, ptr, ptr, ptr }
%struct.ARKLsMassMemRec = type { i32, i32, ptr, ptr, ptr, ptr, double, double, i32, double, i64, i64, i64, i64, i64, i64, i64, i64, i64, ptr, ptr, ptr, ptr, ptr, ptr, ptr, ptr, ptr, ptr, i32 }

@.str = private unnamed_addr constant [118 x i8] c"generated/home/dtcxzyw/WorkSpace/Projects/compilers/llvm-opt-benchmark/bench/sundials/sundials/src/arkode/arkode_ls.c\00", align 1
@.str.1 = private unnamed_addr constant [27 x i8] c"arkode_mem = NULL illegal.\00", align 1
@.str.13 = private unnamed_addr constant [36 x i8] c"Error in calling SUNLinSolSetATimes\00", align 1
@.str.16 = private unnamed_addr constant [65 x i8] c"time-stepping module does not support non-identity mass matrices\00", align 1
@.str.21 = private unnamed_addr constant [69 x i8] c"SUNLinearSolver object does not support user-supplied ATimes routine\00", align 1
@__func__.ARKodeSetMassTimes = private unnamed_addr constant [19 x i8] c"ARKodeSetMassTimes\00", align 1
@.str.37 = private unnamed_addr constant [42 x i8] c"non-NULL mtimes function must be supplied\00", align 1
@.str.65 = private unnamed_addr constant [35 x i8] c"Mass matrix solver memory is NULL.\00", align 1

; Function Attrs: nounwind uwtable
define i32 @arkLs_AccessMassMem(ptr noundef %0, ptr noundef %1, ptr noundef %2) #0 {
  %4 = alloca i32, align 4
  %5 = alloca ptr, align 8
  %6 = alloca ptr, align 8
  %7 = alloca ptr, align 8
  %8 = alloca ptr, align 8
  %9 = alloca i32, align 4
  store ptr %0, ptr %5, align 8, !tbaa !11
  store ptr %1, ptr %6, align 8, !tbaa !155
  store ptr %2, ptr %7, align 8, !tbaa !159
  call void @llvm.lifetime.start.p0(i64 8, ptr %8) #7
  %10 = load ptr, ptr %5, align 8, !tbaa !11
  %11 = getelementptr inbounds nuw %struct.ARKodeMemRec, ptr %10, i32 0, i32 69
  %12 = load ptr, ptr %11, align 8, !tbaa !97
  %13 = load ptr, ptr %5, align 8, !tbaa !11
  %14 = call ptr %12(ptr noundef %13)
  store ptr %14, ptr %8, align 8, !tbaa !3
  %15 = load ptr, ptr %8, align 8, !tbaa !3
  %16 = icmp eq ptr %15, null
  br i1 %16, label %17, label %20

17:                                               ; preds = %3
  %18 = load ptr, ptr %5, align 8, !tbaa !11
  %19 = load ptr, ptr %6, align 8, !tbaa !155
  call void (ptr, i32, i32, ptr, ptr, ptr, ...) @arkProcessError(ptr noundef %18, i32 noundef -6, i32 noundef 4109, ptr noundef %19, ptr noundef @.str, ptr noundef @.str.65)
  store i32 -6, ptr %4, align 4
  store i32 1, ptr %9, align 4
  br label %23

20:                                               ; preds = %3
  %21 = load ptr, ptr %8, align 8, !tbaa !3
  %22 = load ptr, ptr %7, align 8, !tbaa !159
  store ptr %21, ptr %22, align 8, !tbaa !101
  store i32 0, ptr %4, align 4
  store i32 1, ptr %9, align 4
  br label %23

23:                                               ; preds = %20, %17
  call void @llvm.lifetime.end.p0(i64 8, ptr %8) #7
  %24 = load i32, ptr %4, align 4
  ret i32 %24
}

; Function Attrs: nounwind uwtable
define i32 @ARKodeSetMassTimes(ptr noundef %0, ptr noundef %1, ptr noundef %2, ptr noundef %3) #0 {
  %5 = alloca i32, align 4
  %6 = alloca ptr, align 8
  %7 = alloca ptr, align 8
  %8 = alloca ptr, align 8
  %9 = alloca ptr, align 8
  %10 = alloca ptr, align 8
  %11 = alloca ptr, align 8
  %12 = alloca i32, align 4
  %13 = alloca i32, align 4
  store ptr %0, ptr %6, align 8, !tbaa !3
  store ptr %1, ptr %7, align 8, !tbaa !3
  store ptr %2, ptr %8, align 8, !tbaa !3
  store ptr %3, ptr %9, align 8, !tbaa !3
  call void @llvm.lifetime.start.p0(i64 8, ptr %10) #7
  call void @llvm.lifetime.start.p0(i64 8, ptr %11) #7
  call void @llvm.lifetime.start.p0(i64 4, ptr %12) #7
  %14 = load ptr, ptr %6, align 8, !tbaa !3
  %15 = icmp eq ptr %14, null
  br i1 %15, label %16, label %17

16:                                               ; preds = %4
  call void (ptr, i32, i32, ptr, ptr, ptr, ...) @arkProcessError(ptr noundef null, i32 noundef -21, i32 noundef 1768, ptr noundef @__func__.ARKodeSetMassTimes, ptr noundef @.str, ptr noundef @.str.1)
  store i32 -21, ptr %5, align 4
  store i32 1, ptr %13, align 4
  br label %68

17:                                               ; preds = %4
  %18 = load ptr, ptr %6, align 8, !tbaa !3
  store ptr %18, ptr %10, align 8, !tbaa !11
  %19 = load ptr, ptr %10, align 8, !tbaa !11
  %20 = getelementptr inbounds nuw %struct.ARKodeMemRec, ptr %19, i32 0, i32 66
  %21 = load i32, ptr %20, align 8, !tbaa !120
  %22 = icmp ne i32 %21, 0
  br i1 %22, label %25, label %23

23:                                               ; preds = %17
  %24 = load ptr, ptr %10, align 8, !tbaa !11
  call void (ptr, i32, i32, ptr, ptr, ptr, ...) @arkProcessError(ptr noundef %24, i32 noundef -48, i32 noundef 1777, ptr noundef @__func__.ARKodeSetMassTimes, ptr noundef @.str, ptr noundef @.str.16)
  store i32 -48, ptr %5, align 4
  store i32 1, ptr %13, align 4
  br label %68

25:                                               ; preds = %17
  %26 = load ptr, ptr %10, align 8, !tbaa !11
  %27 = call i32 @arkLs_AccessMassMem(ptr noundef %26, ptr noundef @__func__.ARKodeSetMassTimes, ptr noundef %11)
  store i32 %27, ptr %12, align 4, !tbaa !30
  %28 = load i32, ptr %12, align 4, !tbaa !30
  %29 = icmp ne i32 %28, 0
  br i1 %29, label %30, label %32

30:                                               ; preds = %25
  %31 = load i32, ptr %12, align 4, !tbaa !30
  store i32 %31, ptr %5, align 4
  store i32 1, ptr %13, align 4
  br label %68

32:                                               ; preds = %25
  %33 = load ptr, ptr %8, align 8, !tbaa !3
  %34 = icmp eq ptr %33, null
  br i1 %34, label %35, label %37

35:                                               ; preds = %32
  %36 = load ptr, ptr %10, align 8, !tbaa !11
  call void (ptr, i32, i32, ptr, ptr, ptr, ...) @arkProcessError(ptr noundef %36, i32 noundef -3, i32 noundef 1789, ptr noundef @__func__.ARKodeSetMassTimes, ptr noundef @.str, ptr noundef @.str.37)
  store i32 -3, ptr %5, align 4
  store i32 1, ptr %13, align 4
  br label %68

37:                                               ; preds = %32
  %38 = load ptr, ptr %11, align 8, !tbaa !101
  %39 = getelementptr inbounds nuw %struct.ARKLsMassMemRec, ptr %38, i32 0, i32 19
  %40 = load ptr, ptr %39, align 8, !tbaa !110
  %41 = getelementptr inbounds nuw %struct._generic_SUNLinearSolver, ptr %40, i32 0, i32 1
  %42 = load ptr, ptr %41, align 8, !tbaa !24
  %43 = getelementptr inbounds nuw %struct._generic_SUNLinearSolver_Ops, ptr %42, i32 0, i32 2
  %44 = load ptr, ptr %43, align 8, !tbaa !39
  %45 = icmp eq ptr %44, null
  br i1 %45, label %46, label %48

46:                                               ; preds = %37
  %47 = load ptr, ptr %10, align 8, !tbaa !11
  call void (ptr, i32, i32, ptr, ptr, ptr, ...) @arkProcessError(ptr noundef %47, i32 noundef -3, i32 noundef 1797, ptr noundef @__func__.ARKodeSetMassTimes, ptr noundef @.str, ptr noundef @.str.21)
  store i32 -3, ptr %5, align 4
  store i32 1, ptr %13, align 4
  br label %68

48:                                               ; preds = %37
  %49 = load ptr, ptr %7, align 8, !tbaa !3
  %50 = load ptr, ptr %11, align 8, !tbaa !101
  %51 = getelementptr inbounds nuw %struct.ARKLsMassMemRec, ptr %50, i32 0, i32 26
  store ptr %49, ptr %51, align 8, !tbaa !127
  %52 = load ptr, ptr %8, align 8, !tbaa !3
  %53 = load ptr, ptr %11, align 8, !tbaa !101
  %54 = getelementptr inbounds nuw %struct.ARKLsMassMemRec, ptr %53, i32 0, i32 27
  store ptr %52, ptr %54, align 8, !tbaa !128
  %55 = load ptr, ptr %9, align 8, !tbaa !3
  %56 = load ptr, ptr %11, align 8, !tbaa !101
  %57 = getelementptr inbounds nuw %struct.ARKLsMassMemRec, ptr %56, i32 0, i32 28
  store ptr %55, ptr %57, align 8, !tbaa !129
  %58 = load ptr, ptr %11, align 8, !tbaa !101
  %59 = getelementptr inbounds nuw %struct.ARKLsMassMemRec, ptr %58, i32 0, i32 19
  %60 = load ptr, ptr %59, align 8, !tbaa !110
  %61 = load ptr, ptr %10, align 8, !tbaa !11
  %62 = call i32 @SUNLinSolSetATimes(ptr noundef %60, ptr noundef %61, ptr noundef @arkLsMTimes)
  store i32 %62, ptr %12, align 4, !tbaa !30
  %63 = load i32, ptr %12, align 4, !tbaa !30
  %64 = icmp ne i32 %63, 0
  br i1 %64, label %65, label %67

65:                                               ; preds = %48
  %66 = load ptr, ptr %10, align 8, !tbaa !11
  call void (ptr, i32, i32, ptr, ptr, ptr, ...) @arkProcessError(ptr noundef %66, i32 noundef -12, i32 noundef 1812, ptr noundef @__func__.ARKodeSetMassTimes, ptr noundef @.str, ptr noundef @.str.13)
  store i32 -12, ptr %5, align 4
  store i32 1, ptr %13, align 4
  br label %68

67:                                               ; preds = %48
  store i32 0, ptr %5, align 4
  store i32 1, ptr %13, align 4
  br label %68

68:                                               ; preds = %67, %65, %46, %35, %30, %23, %16
  call void @llvm.lifetime.end.p0(i64 4, ptr %12) #7
  call void @llvm.lifetime.end.p0(i64 8, ptr %11) #7
  call void @llvm.lifetime.end.p0(i64 8, ptr %10) #7
  %69 = load i32, ptr %5, align 4
  ret i32 %69
}