; Function Attrs: nounwind uwtable
define range(i32 -48, 1) i32 @ARKodeSetMassTimes(ptr noundef %0, ptr noundef %1, ptr noundef %2, ptr noundef %3) local_unnamed_addr #0 {
  %5 = icmp eq ptr %0, null
  br i1 %5, label %6, label %7

6:                                                ; preds = %4
  tail call void (ptr, i32, i32, ptr, ptr, ptr, ...) @arkProcessError(ptr noundef null, i32 noundef -21, i32 noundef 1768, ptr noundef nonnull @__func__.ARKodeSetMassTimes, ptr noundef nonnull @.str, ptr noundef nonnull @.str.1) #13
  br label %34

7:                                                ; preds = %4
  %8 = getelementptr inbounds nuw i8, ptr %0, i64 512
  %9 = load i32, ptr %8, align 8, !tbaa !105
  %.not = icmp eq i32 %9, 0
  br i1 %.not, label %10, label %11

10:                                               ; preds = %7
  tail call void (ptr, i32, i32, ptr, ptr, ptr, ...) @arkProcessError(ptr noundef nonnull %0, i32 noundef -48, i32 noundef 1777, ptr noundef nonnull @__func__.ARKodeSetMassTimes, ptr noundef nonnull @.str, ptr noundef nonnull @.str.16) #13
  br label %34

11:                                               ; preds = %7
  %12 = getelementptr inbounds nuw i8, ptr %0, i64 536
  %13 = load ptr, ptr %12, align 8, !tbaa !75
  %14 = tail call ptr %13(ptr noundef nonnull %0) #13
  %15 = icmp eq ptr %14, null
  br i1 %15, label %arkLs_AccessMassMem.exit, label %16

arkLs_AccessMassMem.exit:                         ; preds = %11
  tail call void (ptr, i32, i32, ptr, ptr, ptr, ...) @arkProcessError(ptr noundef nonnull %0, i32 noundef -6, i32 noundef 4109, ptr noundef nonnull @__func__.ARKodeSetMassTimes, ptr noundef nonnull @.str, ptr noundef nonnull @.str.65) #13
  br label %34

16:                                               ; preds = %11
  %17 = icmp eq ptr %2, null
  br i1 %17, label %18, label %19

18:                                               ; preds = %16
  tail call void (ptr, i32, i32, ptr, ptr, ptr, ...) @arkProcessError(ptr noundef nonnull %0, i32 noundef -3, i32 noundef 1789, ptr noundef nonnull @__func__.ARKodeSetMassTimes, ptr noundef nonnull @.str, ptr noundef nonnull @.str.37) #13
  br label %34

19:                                               ; preds = %16
  %20 = getelementptr inbounds nuw i8, ptr %14, i64 144
  %21 = load ptr, ptr %20, align 8, !tbaa !88
  %22 = getelementptr inbounds nuw i8, ptr %21, i64 8
  %23 = load ptr, ptr %22, align 8, !tbaa !17
  %24 = getelementptr inbounds nuw i8, ptr %23, i64 16
  %25 = load ptr, ptr %24, align 8, !tbaa !31
  %26 = icmp eq ptr %25, null
  br i1 %26, label %27, label %28

27:                                               ; preds = %19
  tail call void (ptr, i32, i32, ptr, ptr, ptr, ...) @arkProcessError(ptr noundef nonnull %0, i32 noundef -3, i32 noundef 1797, ptr noundef nonnull @__func__.ARKodeSetMassTimes, ptr noundef nonnull @.str, ptr noundef nonnull @.str.21) #13
  br label %34

28:                                               ; preds = %19
  %29 = getelementptr inbounds nuw i8, ptr %14, i64 200
  store ptr %1, ptr %29, align 8, !tbaa !121
  %30 = getelementptr inbounds nuw i8, ptr %14, i64 208
  store ptr %2, ptr %30, align 8, !tbaa !118
  %31 = getelementptr inbounds nuw i8, ptr %14, i64 216
  store ptr %3, ptr %31, align 8, !tbaa !125
  %32 = tail call i32 @SUNLinSolSetATimes(ptr noundef nonnull %21, ptr noundef nonnull %0, ptr noundef nonnull @arkLsMTimes) #13
  %.not20 = icmp eq i32 %32, 0
  br i1 %.not20, label %34, label %33

33:                                               ; preds = %28
  tail call void (ptr, i32, i32, ptr, ptr, ptr, ...) @arkProcessError(ptr noundef nonnull %0, i32 noundef -12, i32 noundef 1812, ptr noundef nonnull @__func__.ARKodeSetMassTimes, ptr noundef nonnull @.str, ptr noundef nonnull @.str.13) #13
  br label %34

34:                                               ; preds = %arkLs_AccessMassMem.exit, %28, %33, %27, %18, %10, %6
  %.0 = phi i32 [ -21, %6 ], [ -3, %18 ], [ -3, %27 ], [ -12, %33 ], [ -48, %10 ], [ -6, %arkLs_AccessMassMem.exit ], [ 0, %28 ]
  ret i32 %.0
}